target datalayout = "e-m:e-p270:32:32-p271:32:32-p272:64:64-i64:64-i128:128-f80:128-n8:16:32:64-S128"
target triple = "x86_64-unknown-linux-gnu"

%struct.BlockDriverState = type { i32, i8, i8, i8, i8, i8, ptr, ptr, ptr, %struct.anon, i8, [4096 x i8], [4096 x i8], [4096 x i8], [16 x i8], ptr, [4096 x i8], %struct.BlockLimits, i32, i32, i32, i32, [32 x i8], %union.anon, %union.anon.0, %union.anon.1, i32, [16 x %struct.anon.2], ptr, %struct.anon.3, ptr, ptr, %struct.anon.4, ptr, ptr, i32, ptr, i64, i64, %struct.QemuMutex, %struct.anon.5, %struct.Stat64, i32, i32, i32, i32, i32, i32, %struct.QemuMutex, %struct.anon.6, %struct.CoQueue, i8, i32, i8, %struct.CoMutex, ptr, ptr }
%struct.anon = type { ptr }
%struct.BlockLimits = type { i32, i64, i32, i64, i32, i32, i32, i64, i32, i64, i64, i32, i8, i32, i32, i32, i32, i32, i32, i32 }
%union.anon = type { %struct.QTailQLink }
%struct.QTailQLink = type { ptr, ptr }
%union.anon.0 = type { %struct.QTailQLink }
%union.anon.1 = type { %struct.QTailQLink }
%struct.anon.2 = type { ptr }
%struct.anon.3 = type { ptr }
%struct.anon.4 = type { ptr }
%struct.anon.5 = type { ptr }
%struct.Stat64 = type { i64 }
%struct.QemuMutex = type { %union.pthread_mutex_t, i8 }
%union.pthread_mutex_t = type { %struct.__pthread_mutex_s }
%struct.__pthread_mutex_s = type { i32, i32, i32, i32, i32, i16, i16, %struct.__pthread_internal_list }
%struct.__pthread_internal_list = type { ptr, ptr }
%struct.anon.6 = type { ptr }
%struct.CoQueue = type { %struct.anon.7 }
%struct.anon.7 = type { ptr, ptr }
%struct.CoMutex = type { i32, ptr, %struct.anon.8, %struct.anon.8, i32, i32, ptr }
%struct.anon.8 = type { ptr }
%struct.BDRVQcow2State = type { i32, i32, i32, i32, i32, i32, i32, i32, i32, i32, i32, i32, i32, i32, i64, i64, ptr, ptr, ptr, ptr, i32, %struct.anon.9, ptr, i64, i32, i32, i64, i64, %struct.CoMutex, %struct.Qcow2CryptoHeaderExtension, ptr, ptr, i8, i32, i64, i32, i32, ptr, i32, i64, i64, i32, i32, i8, i32, i32, i64, ptr, ptr, [5 x i8], i8, i32, i8, i64, i64, i64, i64, ptr, %struct.anon.10, %union.anon.11, i8, ptr, ptr, ptr, %struct.CoQueue, i32, ptr, i8, i8, i32 }
%struct.anon.9 = type { ptr }
%struct.Qcow2CryptoHeaderExtension = type { i64, i64 }
%struct.anon.10 = type { ptr }
%union.anon.11 = type { %struct.QTailQLink }

; Function Attrs: nounwind sspstrong uwtable
define dso_local i32 @qcow2_update_cluster_refcount(ptr noundef %bs, i64 noundef %cluster_index, i64 noundef %addend, i1 noundef zeroext %decrease, i32 noundef %type) #0 {
entry:
  %retval = alloca i32, align 4
  %bs.addr = alloca ptr, align 8
  %cluster_index.addr = alloca i64, align 8
  %addend.addr = alloca i64, align 8
  %decrease.addr = alloca i8, align 1
  %type.addr = alloca i32, align 4
  %s = alloca ptr, align 8
  %ret = alloca i32, align 4
  store ptr %bs, ptr %bs.addr, align 8
  store i64 %cluster_index, ptr %cluster_index.addr, align 8
  store i64 %addend, ptr %addend.addr, align 8
  %frombool = zext i1 %decrease to i8
  store i8 %frombool, ptr %decrease.addr, align 1
  store i32 %type, ptr %type.addr, align 4
  %0 = load ptr, ptr %bs.addr, align 8
  %opaque = getelementptr inbounds %struct.BlockDriverState, ptr %0, i32 0, i32 7
  %1 = load ptr, ptr %opaque, align 8
  store ptr %1, ptr %s, align 8
  %2 = load ptr, ptr %bs.addr, align 8
  %3 = load i64, ptr %cluster_index.addr, align 8
  %4 = load ptr, ptr %s, align 8
  %cluster_bits = getelementptr inbounds %struct.BDRVQcow2State, ptr %4, i32 0, i32 0
  %5 = load i32, ptr %cluster_bits, align 8
  %sh_prom = zext i32 %5 to i64
  %shl = shl i64 %3, %sh_prom
  %6 = load i64, ptr %addend.addr, align 8
  %7 = load i8, ptr %decrease.addr, align 1
  %tobool = trunc i8 %7 to i1
  %8 = load i32, ptr %type.addr, align 4
  %call = call i32 @update_refcount(ptr noundef %2, i64 noundef %shl, i64 noundef 1, i64 noundef %6, i1 noundef zeroext %tobool, i32 noundef %8)
  store i32 %call, ptr %ret, align 4
  %9 = load i32, ptr %ret, align 4
  %cmp = icmp slt i32 %9, 0
  br i1 %cmp, label %if.then, label %if.end

if.then:                                          ; preds = %entry
  %10 = load i32, ptr %ret, align 4
  store i32 %10, ptr %retval, align 4
  br label %return

if.end:                                           ; preds = %entry
  store i32 0, ptr %retval, align 4
  br label %return

return:                                           ; preds = %if.end, %if.then
  %11 = load i32, ptr %retval, align 4
  ret i32 %11
}