; Function Attrs: nounwind sspstrong uwtable
define dso_local range(i32 -2147483648, 1) i32 @qcow2_update_cluster_refcount(ptr noundef %bs, i64 noundef %cluster_index, i64 noundef %addend, i1 noundef zeroext %decrease, i32 noundef %type) local_unnamed_addr #0 {
entry:
  %opaque = getelementptr inbounds nuw i8, ptr %bs, i64 24
  %0 = load ptr, ptr %opaque, align 8
  %1 = load i32, ptr %0, align 8
  %sh_prom = zext nneg i32 %1 to i64
  %shl = shl i64 %cluster_index, %sh_prom
  %call = tail call fastcc i32 @update_refcount(ptr noundef %bs, i64 noundef %shl, i64 noundef 1, i64 noundef %addend, i1 noundef zeroext %decrease, i32 noundef %type)
  ret i32 %call
}